target datalayout = "e-m:e-p270:32:32-p271:32:32-p272:64:64-i64:64-i128:128-f80:128-n8:16:32:64-S128"
target triple = "x86_64-pc-linux-gnu"

%"struct.DeformationModel::GridEx" = type { ptr, i8, double, double, double, double, i32, i32, double, double, double, double, double, double, double, double, double, double, double, double, double, double, double, double }
%"struct.DeformationModel::GridPrototype" = type { double, double, double, double, i32, i32 }

; Function Attrs: mustprogress nounwind uwtable
define internal void @_ZN16DeformationModel6GridExIN12_GLOBAL__N_14GridEE21getBilinearGeocentricEiiddddddddddddRdS4_S4_(ptr noundef nonnull align 8 dereferenceable(184) %0, i32 noundef %1, i32 noundef %2, double noundef %3, double noundef %4, double noundef %5, double noundef %6, double noundef %7, double noundef %8, double noundef %9, double noundef %10, double noundef %11, double noundef %12, double noundef %13, double noundef %14, ptr noundef nonnull align 8 dereferenceable(8) %15, ptr noundef nonnull align 8 dereferenceable(8) %16, ptr noundef nonnull align 8 dereferenceable(8) %17) #0 align 2 {
  %19 = alloca ptr, align 8
  %20 = alloca i32, align 4
  %21 = alloca i32, align 4
  %22 = alloca double, align 8
  %23 = alloca double, align 8
  %24 = alloca double, align 8
  %25 = alloca double, align 8
  %26 = alloca double, align 8
  %27 = alloca double, align 8
  %28 = alloca double, align 8
  %29 = alloca double, align 8
  %30 = alloca double, align 8
  %31 = alloca double, align 8
  %32 = alloca double, align 8
  %33 = alloca double, align 8
  %34 = alloca ptr, align 8
  %35 = alloca ptr, align 8
  %36 = alloca ptr, align 8
  %37 = alloca double, align 8
  %38 = alloca double, align 8
  %39 = alloca double, align 8
  %40 = alloca double, align 8
  %41 = alloca double, align 8
  %42 = alloca double, align 8
  %43 = alloca double, align 8
  %44 = alloca double, align 8
  %45 = alloca double, align 8
  %46 = alloca double, align 8
  %47 = alloca double, align 8
  %48 = alloca double, align 8
  %49 = alloca double, align 8
  %50 = alloca double, align 8
  %51 = alloca double, align 8
  %52 = alloca double, align 8
  %53 = alloca double, align 8
  %54 = alloca double, align 8
  %55 = alloca double, align 8
  %56 = alloca double, align 8
  %57 = alloca double, align 8
  store ptr %0, ptr %19, align 8
  store i32 %1, ptr %20, align 4
  store i32 %2, ptr %21, align 4
  store double %3, ptr %22, align 8
  store double %4, ptr %23, align 8
  store double %5, ptr %24, align 8
  store double %6, ptr %25, align 8
  store double %7, ptr %26, align 8
  store double %8, ptr %27, align 8
  store double %9, ptr %28, align 8
  store double %10, ptr %29, align 8
  store double %11, ptr %30, align 8
  store double %12, ptr %31, align 8
  store double %13, ptr %32, align 8
  store double %14, ptr %33, align 8
  store ptr %15, ptr %34, align 8
  store ptr %16, ptr %35, align 8
  store ptr %17, ptr %36, align 8
  %58 = load ptr, ptr %19, align 8
  %59 = load i32, ptr %20, align 4
  %60 = getelementptr inbounds %"struct.DeformationModel::GridEx", ptr %58, i32 0, i32 6
  %61 = load i32, ptr %60, align 8
  %62 = icmp ne i32 %59, %61
  br i1 %62, label %68, label %63

63:                                               ; preds = %18
  %64 = load i32, ptr %21, align 4
  %65 = getelementptr inbounds %"struct.DeformationModel::GridEx", ptr %58, i32 0, i32 7
  %66 = load i32, ptr %65, align 4
  %67 = icmp ne i32 %64, %66
  br i1 %67, label %68, label %249

68:                                               ; preds = %63, %18
  %69 = load i32, ptr %20, align 4
  %70 = getelementptr inbounds %"struct.DeformationModel::GridEx", ptr %58, i32 0, i32 6
  store i32 %69, ptr %70, align 8
  %71 = load i32, ptr %21, align 4
  %72 = getelementptr inbounds %"struct.DeformationModel::GridEx", ptr %58, i32 0, i32 7
  %73 = load i32, ptr %72, align 4
  %74 = icmp ne i32 %71, %73
  br i1 %74, label %75, label %118

75:                                               ; preds = %68
  %76 = getelementptr inbounds %"struct.DeformationModel::GridEx", ptr %58, i32 0, i32 0
  %77 = load ptr, ptr %76, align 8
  %78 = getelementptr inbounds %"struct.DeformationModel::GridPrototype", ptr %77, i32 0, i32 1
  %79 = load double, ptr %78, align 8
  %80 = load i32, ptr %21, align 4
  %81 = sitofp i32 %80 to double
  %82 = getelementptr inbounds %"struct.DeformationModel::GridEx", ptr %58, i32 0, i32 0
  %83 = load ptr, ptr %82, align 8
  %84 = getelementptr inbounds %"struct.DeformationModel::GridPrototype", ptr %83, i32 0, i32 3
  %85 = load double, ptr %84, align 8
  %86 = call double @llvm.fmuladd.f64(double %81, double %85, double %79)
  store double %86, ptr %37, align 8
  %87 = load double, ptr %37, align 8
  %88 = call double @sin(double noundef %87) #5
  %89 = getelementptr inbounds %"struct.DeformationModel::GridEx", ptr %58, i32 0, i32 20
  store double %88, ptr %89, align 8
  %90 = load double, ptr %37, align 8
  %91 = call double @cos(double noundef %90) #5
  %92 = getelementptr inbounds %"struct.DeformationModel::GridEx", ptr %58, i32 0, i32 21
  store double %91, ptr %92, align 8
  %93 = getelementptr inbounds %"struct.DeformationModel::GridEx", ptr %58, i32 0, i32 20
  %94 = load double, ptr %93, align 8
  %95 = getelementptr inbounds %"struct.DeformationModel::GridEx", ptr %58, i32 0, i32 5
  %96 = load double, ptr %95, align 8
  %97 = getelementptr inbounds %"struct.DeformationModel::GridEx", ptr %58, i32 0, i32 21
  %98 = load double, ptr %97, align 8
  %99 = getelementptr inbounds %"struct.DeformationModel::GridEx", ptr %58, i32 0, i32 4
  %100 = load double, ptr %99, align 8
  %101 = fmul double %98, %100
  %102 = call double @llvm.fmuladd.f64(double %94, double %96, double %101)
  %103 = getelementptr inbounds %"struct.DeformationModel::GridEx", ptr %58, i32 0, i32 22
  store double %102, ptr %103, align 8
  %104 = getelementptr inbounds %"struct.DeformationModel::GridEx", ptr %58, i32 0, i32 21
  %105 = load double, ptr %104, align 8
  %106 = getelementptr inbounds %"struct.DeformationModel::GridEx", ptr %58, i32 0, i32 5
  %107 = load double, ptr %106, align 8
  %108 = getelementptr inbounds %"struct.DeformationModel::GridEx", ptr %58, i32 0, i32 20
  %109 = load double, ptr %108, align 8
  %110 = getelementptr inbounds %"struct.DeformationModel::GridEx", ptr %58, i32 0, i32 4
  %111 = load double, ptr %110, align 8
  %112 = fmul double %109, %111
  %113 = fneg double %112
  %114 = call double @llvm.fmuladd.f64(double %105, double %107, double %113)
  %115 = getelementptr inbounds %"struct.DeformationModel::GridEx", ptr %58, i32 0, i32 23
  store double %114, ptr %115, align 8
  %116 = load i32, ptr %21, align 4
  %117 = getelementptr inbounds %"struct.DeformationModel::GridEx", ptr %58, i32 0, i32 7
  store i32 %116, ptr %117, align 4
  br label %118

118:                                              ; preds = %75, %68
  %119 = getelementptr inbounds %"struct.DeformationModel::GridEx", ptr %58, i32 0, i32 2
  %120 = load double, ptr %119, align 8
  %121 = fneg double %120
  store double %121, ptr %38, align 8
  %122 = getelementptr inbounds %"struct.DeformationModel::GridEx", ptr %58, i32 0, i32 3
  %123 = load double, ptr %122, align 8
  store double %123, ptr %39, align 8
  %124 = getelementptr inbounds %"struct.DeformationModel::GridEx", ptr %58, i32 0, i32 20
  %125 = load double, ptr %124, align 8
  store double %125, ptr %40, align 8
  %126 = getelementptr inbounds %"struct.DeformationModel::GridEx", ptr %58, i32 0, i32 21
  %127 = load double, ptr %126, align 8
  store double %127, ptr %41, align 8
  %128 = load double, ptr %23, align 8
  %129 = load double, ptr %40, align 8
  %130 = fmul double %128, %129
  store double %130, ptr %42, align 8
  %131 = load double, ptr %22, align 8
  %132 = fneg double %131
  %133 = load double, ptr %38, align 8
  %134 = load double, ptr %42, align 8
  %135 = load double, ptr %39, align 8
  %136 = fmul double %134, %135
  %137 = fneg double %136
  %138 = call double @llvm.fmuladd.f64(double %132, double %133, double %137)
  %139 = getelementptr inbounds %"struct.DeformationModel::GridEx", ptr %58, i32 0, i32 8
  store double %138, ptr %139, align 8
  %140 = load double, ptr %22, align 8
  %141 = load double, ptr %39, align 8
  %142 = load double, ptr %42, align 8
  %143 = load double, ptr %38, align 8
  %144 = fmul double %142, %143
  %145 = fneg double %144
  %146 = call double @llvm.fmuladd.f64(double %140, double %141, double %145)
  %147 = getelementptr inbounds %"struct.DeformationModel::GridEx", ptr %58, i32 0, i32 9
  store double %146, ptr %147, align 8
  %148 = load double, ptr %23, align 8
  %149 = load double, ptr %41, align 8
  %150 = fmul double %148, %149
  %151 = getelementptr inbounds %"struct.DeformationModel::GridEx", ptr %58, i32 0, i32 10
  store double %150, ptr %151, align 8
  %152 = getelementptr inbounds %"struct.DeformationModel::GridEx", ptr %58, i32 0, i32 2
  %153 = load double, ptr %152, align 8
  %154 = fneg double %153
  store double %154, ptr %43, align 8
  %155 = getelementptr inbounds %"struct.DeformationModel::GridEx", ptr %58, i32 0, i32 3
  %156 = load double, ptr %155, align 8
  store double %156, ptr %44, align 8
  %157 = getelementptr inbounds %"struct.DeformationModel::GridEx", ptr %58, i32 0, i32 22
  %158 = load double, ptr %157, align 8
  store double %158, ptr %45, align 8
  %159 = getelementptr inbounds %"struct.DeformationModel::GridEx", ptr %58, i32 0, i32 23
  %160 = load double, ptr %159, align 8
  store double %160, ptr %46, align 8
  %161 = load double, ptr %25, align 8
  %162 = load double, ptr %45, align 8
  %163 = fmul double %161, %162
  store double %163, ptr %47, align 8
  %164 = load double, ptr %24, align 8
  %165 = fneg double %164
  %166 = load double, ptr %43, align 8
  %167 = load double, ptr %47, align 8
  %168 = load double, ptr %44, align 8
  %169 = fmul double %167, %168
  %170 = fneg double %169
  %171 = call double @llvm.fmuladd.f64(double %165, double %166, double %170)
  %172 = getelementptr inbounds %"struct.DeformationModel::GridEx", ptr %58, i32 0, i32 11
  store double %171, ptr %172, align 8
  %173 = load double, ptr %24, align 8
  %174 = load double, ptr %44, align 8
  %175 = load double, ptr %47, align 8
  %176 = load double, ptr %43, align 8
  %177 = fmul double %175, %176
  %178 = fneg double %177
  %179 = call double @llvm.fmuladd.f64(double %173, double %174, double %178)
  %180 = getelementptr inbounds %"struct.DeformationModel::GridEx", ptr %58, i32 0, i32 12
  store double %179, ptr %180, align 8
  %181 = load double, ptr %25, align 8
  %182 = load double, ptr %46, align 8
  %183 = fmul double %181, %182
  %184 = getelementptr inbounds %"struct.DeformationModel::GridEx", ptr %58, i32 0, i32 13
  store double %183, ptr %184, align 8
  %185 = getelementptr inbounds %"struct.DeformationModel::GridEx", ptr %58, i32 0, i32 2
  %186 = load double, ptr %185, align 8
  store double %186, ptr %48, align 8
  %187 = getelementptr inbounds %"struct.DeformationModel::GridEx", ptr %58, i32 0, i32 3
  %188 = load double, ptr %187, align 8
  store double %188, ptr %49, align 8
  %189 = getelementptr inbounds %"struct.DeformationModel::GridEx", ptr %58, i32 0, i32 20
  %190 = load double, ptr %189, align 8
  store double %190, ptr %50, align 8
  %191 = getelementptr inbounds %"struct.DeformationModel::GridEx", ptr %58, i32 0, i32 21
  %192 = load double, ptr %191, align 8
  store double %192, ptr %51, align 8
  %193 = load double, ptr %27, align 8
  %194 = load double, ptr %50, align 8
  %195 = fmul double %193, %194
  store double %195, ptr %52, align 8
  %196 = load double, ptr %26, align 8
  %197 = fneg double %196
  %198 = load double, ptr %48, align 8
  %199 = load double, ptr %52, align 8
  %200 = load double, ptr %49, align 8
  %201 = fmul double %199, %200
  %202 = fneg double %201
  %203 = call double @llvm.fmuladd.f64(double %197, double %198, double %202)
  %204 = getelementptr inbounds %"struct.DeformationModel::GridEx", ptr %58, i32 0, i32 14
  store double %203, ptr %204, align 8
  %205 = load double, ptr %26, align 8
  %206 = load double, ptr %49, align 8
  %207 = load double, ptr %52, align 8
  %208 = load double, ptr %48, align 8
  %209 = fmul double %207, %208
  %210 = fneg double %209
  %211 = call double @llvm.fmuladd.f64(double %205, double %206, double %210)
  %212 = getelementptr inbounds %"struct.DeformationModel::GridEx", ptr %58, i32 0, i32 15
  store double %211, ptr %212, align 8
  %213 = load double, ptr %27, align 8
  %214 = load double, ptr %51, align 8
  %215 = fmul double %213, %214
  %216 = getelementptr inbounds %"struct.DeformationModel::GridEx", ptr %58, i32 0, i32 16
  store double %215, ptr %216, align 8
  %217 = getelementptr inbounds %"struct.DeformationModel::GridEx", ptr %58, i32 0, i32 2
  %218 = load double, ptr %217, align 8
  store double %218, ptr %53, align 8
  %219 = getelementptr inbounds %"struct.DeformationModel::GridEx", ptr %58, i32 0, i32 3
  %220 = load double, ptr %219, align 8
  store double %220, ptr %54, align 8
  %221 = getelementptr inbounds %"struct.DeformationModel::GridEx", ptr %58, i32 0, i32 22
  %222 = load double, ptr %221, align 8
  store double %222, ptr %55, align 8
  %223 = getelementptr inbounds %"struct.DeformationModel::GridEx", ptr %58, i32 0, i32 23
  %224 = load double, ptr %223, align 8
  store double %224, ptr %56, align 8
  %225 = load double, ptr %29, align 8
  %226 = load double, ptr %55, align 8
  %227 = fmul double %225, %226
  store double %227, ptr %57, align 8
  %228 = load double, ptr %28, align 8
  %229 = fneg double %228
  %230 = load double, ptr %53, align 8
  %231 = load double, ptr %57, align 8
  %232 = load double, ptr %54, align 8
  %233 = fmul double %231, %232
  %234 = fneg double %233
  %235 = call double @llvm.fmuladd.f64(double %229, double %230, double %234)
  %236 = getelementptr inbounds %"struct.DeformationModel::GridEx", ptr %58, i32 0, i32 17
  store double %235, ptr %236, align 8
  %237 = load double, ptr %28, align 8
  %238 = load double, ptr %54, align 8
  %239 = load double, ptr %57, align 8
  %240 = load double, ptr %53, align 8
  %241 = fmul double %239, %240
  %242 = fneg double %241
  %243 = call double @llvm.fmuladd.f64(double %237, double %238, double %242)
  %244 = getelementptr inbounds %"struct.DeformationModel::GridEx", ptr %58, i32 0, i32 18
  store double %243, ptr %244, align 8
  %245 = load double, ptr %29, align 8
  %246 = load double, ptr %56, align 8
  %247 = fmul double %245, %246
  %248 = getelementptr inbounds %"struct.DeformationModel::GridEx", ptr %58, i32 0, i32 19
  store double %247, ptr %248, align 8
  br label %249

249:                                              ; preds = %118, %63
  %250 = load double, ptr %30, align 8
  %251 = getelementptr inbounds %"struct.DeformationModel::GridEx", ptr %58, i32 0, i32 8
  %252 = load double, ptr %251, align 8
  %253 = load double, ptr %31, align 8
  %254 = getelementptr inbounds %"struct.DeformationModel::GridEx", ptr %58, i32 0, i32 11
  %255 = load double, ptr %254, align 8
  %256 = fmul double %253, %255
  %257 = call double @llvm.fmuladd.f64(double %250, double %252, double %256)
  %258 = load double, ptr %32, align 8
  %259 = getelementptr inbounds %"struct.DeformationModel::GridEx", ptr %58, i32 0, i32 14
  %260 = load double, ptr %259, align 8
  %261 = call double @llvm.fmuladd.f64(double %258, double %260, double %257)
  %262 = load double, ptr %33, align 8
  %263 = getelementptr inbounds %"struct.DeformationModel::GridEx", ptr %58, i32 0, i32 17
  %264 = load double, ptr %263, align 8
  %265 = call double @llvm.fmuladd.f64(double %262, double %264, double %261)
  %266 = load ptr, ptr %34, align 8
  store double %265, ptr %266, align 8
  %267 = load double, ptr %30, align 8
  %268 = getelementptr inbounds %"struct.DeformationModel::GridEx", ptr %58, i32 0, i32 9
  %269 = load double, ptr %268, align 8
  %270 = load double, ptr %31, align 8
  %271 = getelementptr inbounds %"struct.DeformationModel::GridEx", ptr %58, i32 0, i32 12
  %272 = load double, ptr %271, align 8
  %273 = fmul double %270, %272
  %274 = call double @llvm.fmuladd.f64(double %267, double %269, double %273)
  %275 = load double, ptr %32, align 8
  %276 = getelementptr inbounds %"struct.DeformationModel::GridEx", ptr %58, i32 0, i32 15
  %277 = load double, ptr %276, align 8
  %278 = call double @llvm.fmuladd.f64(double %275, double %277, double %274)
  %279 = load double, ptr %33, align 8
  %280 = getelementptr inbounds %"struct.DeformationModel::GridEx", ptr %58, i32 0, i32 18
  %281 = load double, ptr %280, align 8
  %282 = call double @llvm.fmuladd.f64(double %279, double %281, double %278)
  %283 = load ptr, ptr %35, align 8
  store double %282, ptr %283, align 8
  %284 = load double, ptr %30, align 8
  %285 = getelementptr inbounds %"struct.DeformationModel::GridEx", ptr %58, i32 0, i32 10
  %286 = load double, ptr %285, align 8
  %287 = load double, ptr %31, align 8
  %288 = getelementptr inbounds %"struct.DeformationModel::GridEx", ptr %58, i32 0, i32 13
  %289 = load double, ptr %288, align 8
  %290 = fmul double %287, %289
  %291 = call double @llvm.fmuladd.f64(double %284, double %286, double %290)
  %292 = load double, ptr %32, align 8
  %293 = getelementptr inbounds %"struct.DeformationModel::GridEx", ptr %58, i32 0, i32 16
  %294 = load double, ptr %293, align 8
  %295 = call double @llvm.fmuladd.f64(double %292, double %294, double %291)
  %296 = load double, ptr %33, align 8
  %297 = getelementptr inbounds %"struct.DeformationModel::GridEx", ptr %58, i32 0, i32 19
  %298 = load double, ptr %297, align 8
  %299 = call double @llvm.fmuladd.f64(double %296, double %298, double %295)
  %300 = load ptr, ptr %36, align 8
  store double %299, ptr %300, align 8
  ret void
}