; Function Attrs: mustprogress nofree nounwind willreturn memory(readwrite, inaccessiblemem: write) uwtable
define internal fastcc void @_ZN16DeformationModel6GridExIN12_GLOBAL__N_14GridEE21getBilinearGeocentricEiiddddddddddddRdS4_S4_(ptr nocapture noundef nonnull align 8 dereferenceable(184) %0, i32 noundef %1, i32 noundef %2, double noundef %3, double noundef %4, double noundef %5, double noundef %6, double noundef %7, double noundef %8, double noundef %9, double noundef %10, double noundef %11, double noundef %12, double noundef %13, double noundef %14, ptr nocapture noundef nonnull writeonly align 8 dereferenceable(8) %15, ptr nocapture noundef nonnull writeonly align 8 dereferenceable(8) %16, ptr nocapture noundef nonnull writeonly align 8 dereferenceable(8) %17) unnamed_addr #18 align 2 {
  %19 = getelementptr inbounds i8, ptr %0, i64 48
  %20 = load i32, ptr %19, align 8
  %.not = icmp eq i32 %20, %1
  %21 = getelementptr inbounds i8, ptr %0, i64 52
  %22 = load i32, ptr %21, align 4
  %.not71 = icmp eq i32 %22, %2
  %or.cond = select i1 %.not, i1 %.not71, i1 false
  br i1 %or.cond, label %._crit_edge80, label %23

._crit_edge80:                                    ; preds = %18
  %.phi.trans.insert81 = getelementptr inbounds i8, ptr %0, i64 56
  %.pre82 = load double, ptr %.phi.trans.insert81, align 8
  %.phi.trans.insert83 = getelementptr inbounds i8, ptr %0, i64 80
  %.pre84 = load double, ptr %.phi.trans.insert83, align 8
  %.phi.trans.insert85 = getelementptr inbounds i8, ptr %0, i64 104
  %.pre86 = load double, ptr %.phi.trans.insert85, align 8
  %.phi.trans.insert87 = getelementptr inbounds i8, ptr %0, i64 128
  %.pre88 = load double, ptr %.phi.trans.insert87, align 8
  br label %113

23:                                               ; preds = %18
  store i32 %1, ptr %19, align 8
  br i1 %.not71, label %._crit_edge, label %24

._crit_edge:                                      ; preds = %23
  %.phi.trans.insert = getelementptr inbounds i8, ptr %0, i64 152
  %.pre = load double, ptr %.phi.trans.insert, align 8
  %.phi.trans.insert74 = getelementptr inbounds i8, ptr %0, i64 160
  %.pre75 = load double, ptr %.phi.trans.insert74, align 8
  %.phi.trans.insert76 = getelementptr inbounds i8, ptr %0, i64 168
  %.pre77 = load double, ptr %.phi.trans.insert76, align 8
  %.phi.trans.insert78 = getelementptr inbounds i8, ptr %0, i64 176
  %.pre79 = load double, ptr %.phi.trans.insert78, align 8
  %.pre89 = fneg double %.pre
  br label %53

24:                                               ; preds = %23
  %25 = load ptr, ptr %0, align 8
  %26 = getelementptr inbounds i8, ptr %25, i64 8
  %27 = load double, ptr %26, align 8
  %28 = sitofp i32 %2 to double
  %29 = getelementptr inbounds i8, ptr %25, i64 24
  %30 = load double, ptr %29, align 8
  %31 = tail call double @llvm.fmuladd.f64(double %28, double %30, double %27)
  %32 = tail call double @sin(double noundef %31) #29
  %33 = getelementptr inbounds i8, ptr %0, i64 152
  store double %32, ptr %33, align 8
  %34 = tail call double @cos(double noundef %31) #29
  %35 = getelementptr inbounds i8, ptr %0, i64 160
  store double %34, ptr %35, align 8
  %36 = load double, ptr %33, align 8
  %37 = getelementptr inbounds i8, ptr %0, i64 40
  %38 = load <2 x double>, ptr %37, align 8
  %39 = getelementptr inbounds i8, ptr %0, i64 32
  %40 = load <2 x double>, ptr %39, align 8
  %41 = getelementptr inbounds i8, ptr %0, i64 168
  %42 = fneg double %36
  %43 = insertelement <2 x double> poison, double %34, i64 0
  %44 = insertelement <2 x double> %43, double %42, i64 1
  %45 = shufflevector <2 x double> %40, <2 x double> poison, <2 x i32> zeroinitializer
  %46 = fmul <2 x double> %44, %45
  %47 = insertelement <2 x double> poison, double %36, i64 0
  %48 = insertelement <2 x double> %47, double %34, i64 1
  %49 = shufflevector <2 x double> %38, <2 x double> poison, <2 x i32> zeroinitializer
  %50 = tail call <2 x double> @llvm.fmuladd.v2f64(<2 x double> %48, <2 x double> %49, <2 x double> %46)
  store <2 x double> %50, ptr %41, align 8
  store i32 %2, ptr %21, align 4
  %51 = extractelement <2 x double> %50, i64 0
  %52 = extractelement <2 x double> %50, i64 1
  br label %53

53:                                               ; preds = %._crit_edge, %24
  %.pre-phi = phi double [ %.pre89, %._crit_edge ], [ %42, %24 ]
  %54 = phi double [ %.pre79, %._crit_edge ], [ %52, %24 ]
  %55 = phi double [ %.pre77, %._crit_edge ], [ %51, %24 ]
  %56 = phi double [ %.pre75, %._crit_edge ], [ %34, %24 ]
  %57 = phi double [ %.pre, %._crit_edge ], [ %36, %24 ]
  %58 = getelementptr inbounds i8, ptr %0, i64 16
  %59 = fmul double %57, %4
  %60 = fneg double %59
  %61 = getelementptr inbounds i8, ptr %0, i64 56
  %62 = load <2 x double>, ptr %58, align 8
  %63 = insertelement <2 x double> poison, double %59, i64 0
  %64 = insertelement <2 x double> %63, double %60, i64 1
  %65 = fmul <2 x double> %62, %64
  %66 = shufflevector <2 x double> %65, <2 x double> poison, <2 x i32> <i32 1, i32 0>
  %67 = insertelement <2 x double> poison, double %3, i64 0
  %68 = shufflevector <2 x double> %67, <2 x double> poison, <2 x i32> zeroinitializer
  %69 = tail call <2 x double> @llvm.fmuladd.v2f64(<2 x double> %68, <2 x double> %62, <2 x double> %66)
  store <2 x double> %69, ptr %61, align 8
  %70 = fmul double %56, %4
  %71 = getelementptr inbounds i8, ptr %0, i64 72
  store double %70, ptr %71, align 8
  %72 = fmul double %55, %6
  %73 = fneg double %72
  %74 = getelementptr inbounds i8, ptr %0, i64 80
  %75 = insertelement <2 x double> poison, double %72, i64 0
  %76 = insertelement <2 x double> %75, double %73, i64 1
  %77 = fmul <2 x double> %62, %76
  %78 = shufflevector <2 x double> %77, <2 x double> poison, <2 x i32> <i32 1, i32 0>
  %79 = insertelement <2 x double> poison, double %5, i64 0
  %80 = shufflevector <2 x double> %79, <2 x double> poison, <2 x i32> zeroinitializer
  %81 = tail call <2 x double> @llvm.fmuladd.v2f64(<2 x double> %80, <2 x double> %62, <2 x double> %78)
  store <2 x double> %81, ptr %74, align 8
  %82 = fmul double %54, %6
  %83 = getelementptr inbounds i8, ptr %0, i64 96
  store double %82, ptr %83, align 8
  %84 = fneg double %7
  %85 = fmul double %.pre-phi, %8
  %86 = getelementptr inbounds i8, ptr %0, i64 104
  %87 = insertelement <2 x double> poison, double %85, i64 0
  %88 = shufflevector <2 x double> %87, <2 x double> poison, <2 x i32> zeroinitializer
  %89 = fmul <2 x double> %62, %88
  %90 = shufflevector <2 x double> %89, <2 x double> poison, <2 x i32> <i32 1, i32 0>
  %91 = insertelement <2 x double> poison, double %84, i64 0
  %92 = insertelement <2 x double> %91, double %7, i64 1
  %93 = tail call <2 x double> @llvm.fmuladd.v2f64(<2 x double> %92, <2 x double> %62, <2 x double> %90)
  store <2 x double> %93, ptr %86, align 8
  %94 = fmul double %56, %8
  %95 = getelementptr inbounds i8, ptr %0, i64 120
  store double %94, ptr %95, align 8
  %96 = fneg double %9
  %97 = fneg double %55
  %98 = fmul double %97, %10
  %99 = getelementptr inbounds i8, ptr %0, i64 128
  %100 = insertelement <2 x double> poison, double %98, i64 0
  %101 = shufflevector <2 x double> %100, <2 x double> poison, <2 x i32> zeroinitializer
  %102 = fmul <2 x double> %62, %101
  %103 = shufflevector <2 x double> %102, <2 x double> poison, <2 x i32> <i32 1, i32 0>
  %104 = insertelement <2 x double> poison, double %96, i64 0
  %105 = insertelement <2 x double> %104, double %9, i64 1
  %106 = tail call <2 x double> @llvm.fmuladd.v2f64(<2 x double> %105, <2 x double> %62, <2 x double> %103)
  store <2 x double> %106, ptr %99, align 8
  %107 = fmul double %54, %10
  %108 = getelementptr inbounds i8, ptr %0, i64 144
  store double %107, ptr %108, align 8
  %109 = extractelement <2 x double> %69, i64 0
  %110 = extractelement <2 x double> %81, i64 0
  %111 = extractelement <2 x double> %93, i64 0
  %112 = extractelement <2 x double> %106, i64 0
  br label %113

113:                                              ; preds = %._crit_edge80, %53
  %114 = phi double [ %.pre88, %._crit_edge80 ], [ %112, %53 ]
  %115 = phi double [ %.pre86, %._crit_edge80 ], [ %111, %53 ]
  %116 = phi double [ %.pre84, %._crit_edge80 ], [ %110, %53 ]
  %117 = phi double [ %.pre82, %._crit_edge80 ], [ %109, %53 ]
  %118 = fmul double %116, %12
  %119 = tail call double @llvm.fmuladd.f64(double %11, double %117, double %118)
  %120 = tail call double @llvm.fmuladd.f64(double %13, double %115, double %119)
  %121 = tail call double @llvm.fmuladd.f64(double %14, double %114, double %120)
  store double %121, ptr %15, align 8
  %122 = getelementptr inbounds i8, ptr %0, i64 64
  %123 = load double, ptr %122, align 8
  %124 = getelementptr inbounds i8, ptr %0, i64 88
  %125 = load double, ptr %124, align 8
  %126 = fmul double %125, %12
  %127 = tail call double @llvm.fmuladd.f64(double %11, double %123, double %126)
  %128 = getelementptr inbounds i8, ptr %0, i64 112
  %129 = load double, ptr %128, align 8
  %130 = tail call double @llvm.fmuladd.f64(double %13, double %129, double %127)
  %131 = getelementptr inbounds i8, ptr %0, i64 136
  %132 = load double, ptr %131, align 8
  %133 = tail call double @llvm.fmuladd.f64(double %14, double %132, double %130)
  store double %133, ptr %16, align 8
  %134 = getelementptr inbounds i8, ptr %0, i64 72
  %135 = load double, ptr %134, align 8
  %136 = getelementptr inbounds i8, ptr %0, i64 96
  %137 = load double, ptr %136, align 8
  %138 = fmul double %137, %12
  %139 = tail call double @llvm.fmuladd.f64(double %11, double %135, double %138)
  %140 = getelementptr inbounds i8, ptr %0, i64 120
  %141 = load double, ptr %140, align 8
  %142 = tail call double @llvm.fmuladd.f64(double %13, double %141, double %139)
  %143 = getelementptr inbounds i8, ptr %0, i64 144
  %144 = load double, ptr %143, align 8
  %145 = tail call double @llvm.fmuladd.f64(double %14, double %144, double %142)
  store double %145, ptr %17, align 8
  ret void
}